target datalayout = "e-m:e-p270:32:32-p271:32:32-p272:64:64-i64:64-i128:128-f80:128-n8:16:32:64-S128"
target triple = "x86_64-pc-linux-gnu"

%"class.clang::OMPClause" = type { %"class.clang::SourceLocation", %"class.clang::SourceLocation", i32 }
%"class.clang::SourceLocation" = type { i32 }

; Function Attrs: mustprogress nounwind uwtable
define linkonce_odr hidden noundef i32 @_ZNK5clang9OMPClause13getClauseKindEv(ptr noundef nonnull align 4 dereferenceable(12) %0) #0 comdat align 2 {
  %2 = alloca ptr, align 8
  store ptr %0, ptr %2, align 8
  %3 = load ptr, ptr %2, align 8
  %4 = getelementptr inbounds nuw %"class.clang::OMPClause", ptr %3, i32 0, i32 2
  %5 = load i32, ptr %4, align 4
  ret i32 %5
}

; Function Attrs: mustprogress nounwind uwtable
define dso_local noundef ptr @_ZN5clang23OMPClauseWithPostUpdate3getEPKNS_9OMPClauseE(ptr noundef %0) #0 align 2 {
  %2 = alloca ptr, align 8
  %3 = alloca ptr, align 8
  store ptr %0, ptr %3, align 8
  %4 = load ptr, ptr %3, align 8
  %5 = call noundef i32 @_ZNK5clang9OMPClause13getClauseKindEv(ptr noundef nonnull align 4 dereferenceable(12) %4)
  switch i32 %5, label %42 [
    i32 51, label %6
    i32 81, label %13
    i32 93, label %20
    i32 45, label %27
    i32 52, label %34
    i32 86, label %41
    i32 28, label %41
    i32 36, label %41
    i32 20, label %41
    i32 79, label %41
    i32 44, label %41
    i32 35, label %41
    i32 70, label %41
    i32 85, label %41
    i32 91, label %41
    i32 92, label %41
    i32 8, label %41
    i32 7, label %41
    i32 15, label %41
    i32 78, label %41
    i32 89, label %41
    i32 6, label %41
    i32 19, label %41
    i32 18, label %41
    i32 75, label %41
    i32 63, label %41
    i32 102, label %41
    i32 57, label %41
    i32 95, label %41
    i32 37, label %41
    i32 23, label %41
    i32 80, label %41
    i32 110, label %41
    i32 103, label %41
    i32 14, label %41
    i32 16, label %41
    i32 33, label %41
    i32 87, label %41
    i32 1, label %41
    i32 2, label %41
    i32 83, label %41
    i32 82, label %41
    i32 22, label %41
    i32 26, label %41
    i32 96, label %41
    i32 90, label %41
    i32 54, label %41
    i32 69, label %41
    i32 94, label %41
    i32 77, label %41
    i32 40, label %41
    i32 59, label %41
    i32 68, label %41
    i32 42, label %41
    i32 21, label %41
    i32 101, label %41
    i32 100, label %41
    i32 97, label %41
    i32 38, label %41
    i32 106, label %41
    i32 105, label %41
    i32 50, label %41
    i32 41, label %41
    i32 98, label %41
    i32 99, label %41
    i32 84, label %41
    i32 30, label %41
    i32 11, label %41
    i32 10, label %41
    i32 88, label %41
    i32 58, label %41
    i32 27, label %41
    i32 55, label %41
    i32 65, label %41
    i32 74, label %41
    i32 24, label %41
    i32 67, label %41
    i32 64, label %41
    i32 25, label %41
    i32 47, label %41
    i32 32, label %41
    i32 107, label %41
    i32 4, label %41
    i32 109, label %41
    i32 12, label %41
  ]

6:                                                ; preds = %1
  %7 = load ptr, ptr %3, align 8
  %8 = icmp eq ptr %7, null
  br i1 %8, label %11, label %9

9:                                                ; preds = %6
  %10 = getelementptr inbounds i8, ptr %7, i64 24
  br label %11

11:                                               ; preds = %9, %6
  %12 = phi ptr [ %10, %9 ], [ null, %6 ]
  store ptr %12, ptr %2, align 8
  br label %44

13:                                               ; preds = %1
  %14 = load ptr, ptr %3, align 8
  %15 = icmp eq ptr %14, null
  br i1 %15, label %18, label %16

16:                                               ; preds = %13
  %17 = getelementptr inbounds i8, ptr %14, i64 24
  br label %18

18:                                               ; preds = %16, %13
  %19 = phi ptr [ %17, %16 ], [ null, %13 ]
  store ptr %19, ptr %2, align 8
  br label %44

20:                                               ; preds = %1
  %21 = load ptr, ptr %3, align 8
  %22 = icmp eq ptr %21, null
  br i1 %22, label %25, label %23

23:                                               ; preds = %20
  %24 = getelementptr inbounds i8, ptr %21, i64 24
  br label %25

25:                                               ; preds = %23, %20
  %26 = phi ptr [ %24, %23 ], [ null, %20 ]
  store ptr %26, ptr %2, align 8
  br label %44

27:                                               ; preds = %1
  %28 = load ptr, ptr %3, align 8
  %29 = icmp eq ptr %28, null
  br i1 %29, label %32, label %30

30:                                               ; preds = %27
  %31 = getelementptr inbounds i8, ptr %28, i64 24
  br label %32

32:                                               ; preds = %30, %27
  %33 = phi ptr [ %31, %30 ], [ null, %27 ]
  store ptr %33, ptr %2, align 8
  br label %44

34:                                               ; preds = %1
  %35 = load ptr, ptr %3, align 8
  %36 = icmp eq ptr %35, null
  br i1 %36, label %39, label %37

37:                                               ; preds = %34
  %38 = getelementptr inbounds i8, ptr %35, i64 24
  br label %39

39:                                               ; preds = %37, %34
  %40 = phi ptr [ %38, %37 ], [ null, %34 ]
  store ptr %40, ptr %2, align 8
  br label %44

41:                                               ; preds = %1, %1, %1, %1, %1, %1, %1, %1, %1, %1, %1, %1, %1, %1, %1, %1, %1, %1, %1, %1, %1, %1, %1, %1, %1, %1, %1, %1, %1, %1, %1, %1, %1, %1, %1, %1, %1, %1, %1, %1, %1, %1, %1, %1, %1, %1, %1, %1, %1, %1, %1, %1, %1, %1, %1, %1, %1, %1, %1, %1, %1, %1, %1, %1, %1, %1, %1, %1, %1, %1, %1, %1, %1, %1, %1, %1, %1, %1, %1, %1
  br label %43

42:                                               ; preds = %1
  br label %43

43:                                               ; preds = %42, %41
  store ptr null, ptr %2, align 8
  br label %44

44:                                               ; preds = %43, %39, %32, %25, %18, %11
  %45 = load ptr, ptr %2, align 8
  ret ptr %45
}

; Function Attrs: mustprogress nounwind uwtable
define dso_local noundef ptr @_ZN5clang23OMPClauseWithPostUpdate3getEPNS_9OMPClauseE(ptr noundef %0) #0 align 2 {
  %2 = alloca ptr, align 8
  %3 = alloca ptr, align 8
  store ptr %0, ptr %2, align 8
  %4 = load ptr, ptr %2, align 8
  %5 = call noundef ptr @_ZN5clang23OMPClauseWithPostUpdate3getEPKNS_9OMPClauseE(ptr noundef %4)
  store ptr %5, ptr %3, align 8
  %6 = load ptr, ptr %3, align 8
  %7 = icmp ne ptr %6, null
  br i1 %7, label %8, label %10

8:                                                ; preds = %1
  %9 = load ptr, ptr %3, align 8
  br label %11

10:                                               ; preds = %1
  br label %11

11:                                               ; preds = %10, %8
  %12 = phi ptr [ %9, %8 ], [ null, %10 ]
  ret ptr %12
}