; Function Attrs: mustprogress nofree norecurse nosync nounwind willreturn memory(argmem: read) uwtable
define dso_local noundef ptr @_ZN5clang23OMPClauseWithPostUpdate3getEPNS_9OMPClauseE(ptr noundef readonly %0) local_unnamed_addr #3 align 2 {
  %2 = getelementptr inbounds nuw i8, ptr %0, i64 8
  %3 = load i32, ptr %2, align 4
  switch i32 %3, label %_ZN5clang23OMPClauseWithPostUpdate3getEPKNS_9OMPClauseE.exit [
    i32 51, label %4
    i32 81, label %6
    i32 93, label %8
    i32 45, label %10
    i32 52, label %12
  ]

4:                                                ; preds = %1
  %5 = getelementptr inbounds nuw i8, ptr %0, i64 24
  br label %_ZN5clang23OMPClauseWithPostUpdate3getEPKNS_9OMPClauseE.exit

6:                                                ; preds = %1
  %7 = getelementptr inbounds nuw i8, ptr %0, i64 24
  br label %_ZN5clang23OMPClauseWithPostUpdate3getEPKNS_9OMPClauseE.exit

8:                                                ; preds = %1
  %9 = getelementptr inbounds nuw i8, ptr %0, i64 24
  br label %_ZN5clang23OMPClauseWithPostUpdate3getEPKNS_9OMPClauseE.exit

10:                                               ; preds = %1
  %11 = getelementptr inbounds nuw i8, ptr %0, i64 24
  br label %_ZN5clang23OMPClauseWithPostUpdate3getEPKNS_9OMPClauseE.exit

12:                                               ; preds = %1
  %13 = getelementptr inbounds nuw i8, ptr %0, i64 24
  br label %_ZN5clang23OMPClauseWithPostUpdate3getEPKNS_9OMPClauseE.exit

_ZN5clang23OMPClauseWithPostUpdate3getEPKNS_9OMPClauseE.exit: ; preds = %1, %4, %6, %8, %10, %12
  %.0.i = phi ptr [ %13, %12 ], [ %11, %10 ], [ %9, %8 ], [ %7, %6 ], [ %5, %4 ], [ null, %1 ]
  ret ptr %.0.i
}